target datalayout = "e-m:e-p270:32:32-p271:32:32-p272:64:64-i64:64-i128:128-f80:128-n8:16:32:64-S128"
target triple = "x86_64-pc-linux-gnu"

%struct.expert_field = type { i32, i32 }

@hf_gsm_a_spare_bits = hidden global i32 0, align 4
@ei_gsm_a_extraneous_data = internal global %struct.expert_field zeroinitializer, align 4
@hf_gsm_a_gm_rac = external global i32, align 4
@hf_gsm_a_nmo_1 = internal global i32 0, align 4
@hf_gsm_a_nmo = internal global i32 0, align 4

; Function Attrs: null_pointer_is_valid sspstrong uwtable
define hidden zeroext i16 @de_ps_domain_spec_sys_info(ptr noundef %0, ptr noundef %1, ptr noundef %2, i32 noundef %3, i32 noundef %4, ptr noundef %5, i32 noundef %6) #1 {
  %8 = alloca ptr, align 8
  %9 = alloca ptr, align 8
  %10 = alloca ptr, align 8
  %11 = alloca i32, align 4
  %12 = alloca i32, align 4
  %13 = alloca ptr, align 8
  %14 = alloca i32, align 4
  %15 = alloca i32, align 4
  store ptr %0, ptr %8, align 8
  store ptr %1, ptr %9, align 8
  store ptr %2, ptr %10, align 8
  store i32 %3, ptr %11, align 4
  store i32 %4, ptr %12, align 4
  store ptr %5, ptr %13, align 8
  store i32 %6, ptr %14, align 4
  call void @llvm.lifetime.start.p0(i64 4, ptr %15) #9
  %16 = load i32, ptr %11, align 4
  store i32 %16, ptr %15, align 4
  %17 = load ptr, ptr %9, align 8
  %18 = load i32, ptr @hf_gsm_a_gm_rac, align 4
  %19 = load ptr, ptr %8, align 8
  %20 = load i32, ptr %15, align 4
  %21 = call ptr @proto_tree_add_item(ptr noundef %17, i32 noundef %18, ptr noundef %19, i32 noundef %20, i32 noundef 1, i32 noundef 0)
  %22 = load i32, ptr %15, align 4
  %23 = add i32 %22, 1
  store i32 %23, ptr %15, align 4
  %24 = load ptr, ptr %9, align 8
  %25 = load i32, ptr @hf_gsm_a_spare_bits, align 4
  %26 = load ptr, ptr %8, align 8
  %27 = load i32, ptr %15, align 4
  %28 = shl i32 %27, 3
  %29 = call ptr @proto_tree_add_bits_item(ptr noundef %24, i32 noundef %25, ptr noundef %26, i32 noundef %28, i32 noundef 6, i32 noundef 0)
  %30 = load ptr, ptr %9, align 8
  %31 = load i32, ptr @hf_gsm_a_nmo_1, align 4
  %32 = load ptr, ptr %8, align 8
  %33 = load i32, ptr %15, align 4
  %34 = call ptr @proto_tree_add_item(ptr noundef %30, i32 noundef %31, ptr noundef %32, i32 noundef %33, i32 noundef 1, i32 noundef 0)
  %35 = load ptr, ptr %9, align 8
  %36 = load i32, ptr @hf_gsm_a_nmo, align 4
  %37 = load ptr, ptr %8, align 8
  %38 = load i32, ptr %15, align 4
  %39 = call ptr @proto_tree_add_item(ptr noundef %35, i32 noundef %36, ptr noundef %37, i32 noundef %38, i32 noundef 1, i32 noundef 0)
  %40 = load i32, ptr %15, align 4
  %41 = add i32 %40, 1
  store i32 %41, ptr %15, align 4
  %42 = load i32, ptr %12, align 4
  %43 = load i32, ptr %15, align 4
  %44 = load i32, ptr %11, align 4
  %45 = sub i32 %43, %44
  %46 = icmp ugt i32 %42, %45
  br i1 %46, label %47, label %65

47:                                               ; preds = %7
  %48 = load ptr, ptr %9, align 8
  %49 = load ptr, ptr %10, align 8
  %50 = load ptr, ptr %8, align 8
  %51 = load i32, ptr %15, align 4
  %52 = load i32, ptr %12, align 4
  %53 = load i32, ptr %15, align 4
  %54 = load i32, ptr %11, align 4
  %55 = sub i32 %53, %54
  %56 = sub i32 %52, %55
  %57 = call ptr @proto_tree_add_expert(ptr noundef %48, ptr noundef %49, ptr noundef @ei_gsm_a_extraneous_data, ptr noundef %50, i32 noundef %51, i32 noundef %56)
  %58 = load i32, ptr %12, align 4
  %59 = load i32, ptr %15, align 4
  %60 = load i32, ptr %11, align 4
  %61 = sub i32 %59, %60
  %62 = sub i32 %58, %61
  %63 = load i32, ptr %15, align 4
  %64 = add i32 %63, %62
  store i32 %64, ptr %15, align 4
  br label %65

65:                                               ; preds = %47, %7
  %66 = load i32, ptr %15, align 4
  %67 = load i32, ptr %11, align 4
  %68 = sub i32 %66, %67
  %69 = trunc i32 %68 to i16
  call void @llvm.lifetime.end.p0(i64 4, ptr %15) #9
  ret i16 %69
}