; Function Attrs: null_pointer_is_valid sspstrong uwtable
define hidden noundef zeroext i16 @de_ps_domain_spec_sys_info(ptr noundef %0, ptr noundef %1, ptr noundef %2, i32 noundef %3, i32 noundef %4, ptr readnone captures(none) %5, i32 %6) #1 {
  %8 = load i32, ptr @hf_gsm_a_gm_rac, align 4
  %9 = tail call ptr @proto_tree_add_item(ptr noundef %1, i32 noundef %8, ptr noundef %0, i32 noundef %3, i32 noundef 1, i32 noundef 0)
  %10 = add i32 %3, 1
  %11 = load i32, ptr @hf_gsm_a_spare_bits, align 4
  %12 = shl i32 %10, 3
  %13 = tail call ptr @proto_tree_add_bits_item(ptr noundef %1, i32 noundef %11, ptr noundef %0, i32 noundef %12, i32 noundef 6, i32 noundef 0)
  %14 = load i32, ptr @hf_gsm_a_nmo_1, align 4
  %15 = tail call ptr @proto_tree_add_item(ptr noundef %1, i32 noundef %14, ptr noundef %0, i32 noundef %10, i32 noundef 1, i32 noundef 0)
  %16 = load i32, ptr @hf_gsm_a_nmo, align 4
  %17 = tail call ptr @proto_tree_add_item(ptr noundef %1, i32 noundef %16, ptr noundef %0, i32 noundef %10, i32 noundef 1, i32 noundef 0)
  %18 = add i32 %3, 2
  %19 = icmp ugt i32 %4, 2
  br i1 %19, label %20, label %24

20:                                               ; preds = %7
  %21 = add i32 %4, -2
  %22 = tail call ptr @proto_tree_add_expert(ptr noundef %1, ptr noundef %2, ptr noundef nonnull @ei_gsm_a_extraneous_data, ptr noundef %0, i32 noundef %18, i32 noundef %21)
  %23 = add i32 %4, %3
  br label %24

24:                                               ; preds = %20, %7
  %.0 = phi i32 [ %23, %20 ], [ %18, %7 ]
  %25 = sub i32 %.0, %3
  %26 = trunc i32 %25 to i16
  ret i16 %26
}